(lp0
(lp1
((F0.587536156654004
F-0.08596879045670666
F-0.1836145433544365
tp2
(F0.2198522490712712
F0.9750382717961765
F0.030937653393420948
F0.0028668298759597683
tp3
tp4
a((F0.5961352663237239
F0.5110482208207364
F-0.2990086554097657
tp5
(F-0.08908209603937543
F0.9897236922252155
F0.019599340622229358
F0.11012383511525746
tp6
tp7
aa(lp8
((F0.6538566724635801
F-0.3897347460315701
F-0.2056167429672441
tp9
(F-0.02021235205741301
F0.9974514055622302
F-0.06407698594842934
F0.02400612917576191
tp10
tp11
a((F0.6473035366685729
F0.0904857847118995
F-0.22705809036037744
tp12
(F0.0002900526519284964
F0.9960099448527254
F-0.061742002358850336
F0.0644362535274179
tp13
tp14
aa((F0.33384437140244183
F-0.6435382437965766
F-0.16114962038923525
tp15
(F0.03910339195091293
F0.9988978716537557
F0.001564202373309652
F0.025913703217904795
tp16
tp17
a.